target datalayout = "e-m:e-p270:32:32-p271:32:32-p272:64:64-i64:64-i128:128-f80:128-n8:16:32:64-S128"
target triple = "x86_64-pc-linux-gnu"

%"class.std::vector.87" = type { %"struct.std::_Vector_base.88" }
%"struct.std::_Vector_base.88" = type { %"struct.std::_Vector_base<casadi::Matrix<double>, std::allocator<casadi::Matrix<double>>>::_Vector_impl" }
%"struct.std::_Vector_base<casadi::Matrix<double>, std::allocator<casadi::Matrix<double>>>::_Vector_impl" = type { %"struct.std::_Vector_base<casadi::Matrix<double>, std::allocator<casadi::Matrix<double>>>::_Vector_impl_data" }
%"struct.std::_Vector_base<casadi::Matrix<double>, std::allocator<casadi::Matrix<double>>>::_Vector_impl_data" = type { ptr, ptr, ptr }

; Function Attrs: mustprogress nounwind uwtable
define linkonce_odr hidden void @_ZNSt15__new_allocatorIN6casadi6MatrixIdEEEC2Ev(ptr noundef nonnull align 1 dereferenceable(1) %0) unnamed_addr #7 comdat align 2 {
  %2 = alloca ptr, align 8
  store ptr %0, ptr %2, align 8
  ret void
}

; Function Attrs: mustprogress nounwind uwtable
define linkonce_odr hidden void @_ZNSt12_Vector_baseIN6casadi6MatrixIdEESaIS2_EE17_Vector_impl_dataC2Ev(ptr noundef nonnull align 8 dereferenceable(24) %0) unnamed_addr #7 comdat align 2 {
  %2 = alloca ptr, align 8
  store ptr %0, ptr %2, align 8
  %3 = load ptr, ptr %2, align 8
  %4 = getelementptr inbounds %"struct.std::_Vector_base<casadi::Matrix<double>, std::allocator<casadi::Matrix<double>>>::_Vector_impl_data", ptr %3, i32 0, i32 0
  store ptr null, ptr %4, align 8
  %5 = getelementptr inbounds %"struct.std::_Vector_base<casadi::Matrix<double>, std::allocator<casadi::Matrix<double>>>::_Vector_impl_data", ptr %3, i32 0, i32 1
  store ptr null, ptr %5, align 8
  %6 = getelementptr inbounds %"struct.std::_Vector_base<casadi::Matrix<double>, std::allocator<casadi::Matrix<double>>>::_Vector_impl_data", ptr %3, i32 0, i32 2
  store ptr null, ptr %6, align 8
  ret void
}

; Function Attrs: mustprogress nounwind uwtable
define linkonce_odr hidden void @_ZNSaIN6casadi6MatrixIdEEEC2Ev(ptr noundef nonnull align 1 dereferenceable(1) %0) unnamed_addr #7 comdat align 2 {
  %2 = alloca ptr, align 8
  store ptr %0, ptr %2, align 8
  %3 = load ptr, ptr %2, align 8
  call void @_ZNSt15__new_allocatorIN6casadi6MatrixIdEEEC2Ev(ptr noundef nonnull align 1 dereferenceable(1) %3) #3
  ret void
}

; Function Attrs: mustprogress nounwind uwtable
define linkonce_odr hidden void @_ZNSt12_Vector_baseIN6casadi6MatrixIdEESaIS2_EE12_Vector_implC2Ev(ptr noundef nonnull align 8 dereferenceable(24) %0) unnamed_addr #7 comdat align 2 {
  %2 = alloca ptr, align 8
  store ptr %0, ptr %2, align 8
  %3 = load ptr, ptr %2, align 8
  call void @_ZNSaIN6casadi6MatrixIdEEEC2Ev(ptr noundef nonnull align 1 dereferenceable(1) %3) #3
  call void @_ZNSt12_Vector_baseIN6casadi6MatrixIdEESaIS2_EE17_Vector_impl_dataC2Ev(ptr noundef nonnull align 8 dereferenceable(24) %3) #3
  ret void
}

; Function Attrs: mustprogress nounwind uwtable
define linkonce_odr hidden void @_ZNSt12_Vector_baseIN6casadi6MatrixIdEESaIS2_EEC2Ev(ptr noundef nonnull align 8 dereferenceable(24) %0) unnamed_addr #7 comdat align 2 {
  %2 = alloca ptr, align 8
  store ptr %0, ptr %2, align 8
  %3 = load ptr, ptr %2, align 8
  %4 = getelementptr inbounds %"struct.std::_Vector_base.88", ptr %3, i32 0, i32 0
  call void @_ZNSt12_Vector_baseIN6casadi6MatrixIdEESaIS2_EE12_Vector_implC2Ev(ptr noundef nonnull align 8 dereferenceable(24) %4) #3
  ret void
}

; Function Attrs: mustprogress nounwind uwtable
define linkonce_odr hidden void @_ZNSt6vectorIN6casadi6MatrixIdEESaIS2_EEC2Ev(ptr noundef nonnull align 8 dereferenceable(24) %0) unnamed_addr #7 comdat align 2 {
  %2 = alloca ptr, align 8
  store ptr %0, ptr %2, align 8
  %3 = load ptr, ptr %2, align 8
  call void @_ZNSt12_Vector_baseIN6casadi6MatrixIdEESaIS2_EEC2Ev(ptr noundef nonnull align 8 dereferenceable(24) %3) #3
  ret void
}

; Function Attrs: mustprogress uwtable
define void @_ZN6casadi16DeserializerBase22blind_unpack_dm_vectorEv(ptr dead_on_unwind noalias writable sret(%"class.std::vector.87") align 8 %0, ptr noundef nonnull align 8 dereferenceable(16) %1) #4 align 2 personality ptr @__gxx_personality_v0 {
  %3 = alloca ptr, align 8
  %4 = alloca ptr, align 8
  %5 = alloca i1, align 1
  %6 = alloca ptr, align 8
  %7 = alloca i32, align 4
  store ptr %0, ptr %3, align 8
  store ptr %1, ptr %4, align 8
  %8 = load ptr, ptr %4, align 8
  store i1 false, ptr %5, align 1
  call void @_ZNSt6vectorIN6casadi6MatrixIdEESaIS2_EEC2Ev(ptr noundef nonnull align 8 dereferenceable(24) %0) #3
  %9 = invoke noundef nonnull align 8 dereferenceable(41) ptr @_ZN6casadi16DeserializerBase12deserializerEv(ptr noundef nonnull align 8 dereferenceable(16) %8)
          to label %10 unwind label %13

10:                                               ; preds = %2
  invoke void @_ZN6casadi19DeserializingStream6unpackINS_6MatrixIdEEEEvRSt6vectorIT_SaIS5_EE(ptr noundef nonnull align 8 dereferenceable(41) %9, ptr noundef nonnull align 8 dereferenceable(24) %0)
          to label %11 unwind label %13

11:                                               ; preds = %10
  store i1 true, ptr %5, align 1
  %12 = load i1, ptr %5, align 1
  br i1 %12, label %18, label %17

13:                                               ; preds = %10, %2
  %14 = landingpad { ptr, i32 }
          cleanup
  %15 = extractvalue { ptr, i32 } %14, 0
  store ptr %15, ptr %6, align 8
  %16 = extractvalue { ptr, i32 } %14, 1
  store i32 %16, ptr %7, align 4
  call void @_ZNSt6vectorIN6casadi6MatrixIdEESaIS2_EED2Ev(ptr noundef nonnull align 8 dereferenceable(24) %0) #3
  br label %19

17:                                               ; preds = %11
  call void @_ZNSt6vectorIN6casadi6MatrixIdEESaIS2_EED2Ev(ptr noundef nonnull align 8 dereferenceable(24) %0) #3
  br label %18

18:                                               ; preds = %17, %11
  ret void

19:                                               ; preds = %13
  %20 = load ptr, ptr %6, align 8
  %21 = load i32, ptr %7, align 4
  %22 = insertvalue { ptr, i32 } poison, ptr %20, 0
  %23 = insertvalue { ptr, i32 } %22, i32 %21, 1
  resume { ptr, i32 } %23
}